; Function Attrs: nounwind uwtable
define internal void @Producer_cb(ptr noundef %0, ptr noundef %1, ptr nocapture readnone %2) #0 {
  %4 = icmp eq ptr %0, null
  br i1 %4, label %36, label %5

5:                                                ; preds = %3
  %6 = getelementptr inbounds i8, ptr %0, i64 80
  %7 = load ptr, ptr %6, align 8
  %8 = getelementptr inbounds i8, ptr %7, i64 64
  %9 = load ptr, ptr %8, align 8
  %10 = load i32, ptr %9, align 4
  %11 = and i32 %10, 2
  %.not = icmp eq i32 %11, 0
  br i1 %.not, label %36, label %12

12:                                               ; preds = %5
  %13 = getelementptr inbounds i8, ptr %0, i64 256
  %14 = load ptr, ptr %13, align 8
  %.not20 = icmp eq ptr %14, null
  br i1 %.not20, label %15, label %36

15:                                               ; preds = %12
  %16 = getelementptr inbounds i8, ptr %1, i64 304
  %17 = load ptr, ptr %16, align 8
  %.not21 = icmp eq ptr %17, null
  %18 = load i32, ptr %1, align 8
  %19 = getelementptr inbounds i8, ptr %0, i64 48
  %20 = getelementptr inbounds i8, ptr %17, i64 24
  %.sink23 = select i1 %.not21, ptr %19, ptr %20
  %21 = load ptr, ptr %.sink23, align 8
  %22 = tail call noalias dereferenceable_or_null(32) ptr @calloc(i64 noundef 1, i64 noundef 32) #23
  store ptr %22, ptr %13, align 8
  %.not22 = icmp eq ptr %22, null
  br i1 %.not22, label %36, label %23

23:                                               ; preds = %15
  %24 = zext i32 %18 to i64
  %25 = getelementptr inbounds i8, ptr %21, i64 %24
  %26 = getelementptr inbounds i8, ptr %0, i64 316
  %27 = load i32, ptr %26, align 4
  %28 = add i32 %27, 1
  store i32 %28, ptr %26, align 4
  %29 = getelementptr inbounds i8, ptr %1, i64 8
  %30 = load i64, ptr %29, align 8
  %31 = getelementptr inbounds i8, ptr %22, i64 8
  %32 = tail call ptr @pdf_parse_string(ptr noundef nonnull %0, ptr noundef nonnull %1, ptr noundef %25, i64 noundef %30, ptr noundef nonnull @.str.278, ptr noundef null, ptr noundef nonnull %31) #22
  %33 = load ptr, ptr %13, align 8
  store ptr %32, ptr %33, align 8
  %34 = load i32, ptr %26, align 4
  %35 = add i32 %34, -1
  store i32 %35, ptr %26, align 4
  br label %36

36:                                               ; preds = %15, %5, %3, %23, %12
  ret void
}